(dp1
S'OriginalConfig'
p2
ccopy_reg
_reconstructor
p3
(cWMCore.Configuration
Configuration
p4
c__builtin__
object
p5
NtRp6
(dp7
S'Site'
p8
g3
(cWMCore.Configuration
ConfigSection
p9
g5
NtRp10
(dp11
S'_internal_skipChecks'
p12
I00
sS'_internal_documentation'
p13
S''
sS'_internal_settings'
p14
c__builtin__
set
p15
((lp16
S'storageSite'
p17
atRp18
sS'_internal_name'
p19
g8
sS'_internal_docstrings'
p20
(dp21
sS'_internal_children'
p22
g15
((ltRp23
sg17
S'T2_CH_CERN'
p24
sS'_internal_parent_ref'
p25
NsbsS'_internal_sections'
p26
(lp27
S'General'
p28
aS'JobType'
p29
aS'Data'
p30
ag8
aS'User'
p31
aS'Debug'
p32
asg28
g3
(g9
g5
NtRp33
(dp34
S'transferLogs'
p35
I01
sg12
I00
sg13
S''
sg14
g15
((lp36
g35
aS'workArea'
p37
aS'requestName'
p38
atRp39
sg19
g28
sg20
(dp40
sg22
g15
((ltRp41
sg38
S'HLTPhysics3'
p42
sg25
Nsg37
S'crab_HLTPhysics_Run299420_v2p1V4_PS1p4e34_20170802_V2'
p43
sbsS'_internal_webapps'
p44
(lp45
sg31
g3
(g9
g5
NtRp46
(dp47
g12
I00
sg13
S''
sg14
g15
((ltRp48
sg19
g31
sg20
(dp49
sg22
g15
((ltRp50
sg25
NsbsS'_internal_components'
p51
(lp52
sg32
g3
(g9
g5
NtRp53
(dp54
g12
I00
sg13
S''
sg14
g15
((ltRp55
sg19
g32
sg20
(dp56
sg22
g15
((ltRp57
sg25
Nsbsg30
g3
(g9
g5
NtRp58
(dp59
S'inputDataset'
p60
S'/ParkingHLTPhysics3/Run2017C-v1/RAW'
p61
sS'outputDatasetTag'
p62
S'HLTPhysics_Run299420_v2p1V4_PS1p4e34_20170802_V2_HLTPhysics3'
p63
sg12
I00
sS'splitting'
p64
S'EventAwareLumiBased'
p65
sS'unitsPerJob'
p66
I5000
sg13
S''
sg14
g15
((lp67
g60
ag62
aS'publication'
p68
ag66
aS'inputDBS'
p69
ag64
aS'outLFNDirBase'
p70
aS'lumiMask'
p71
aS'totalUnits'
p72
atRp73
sg19
g30
sg69
S'global'
p74
sg20
(dp75
sg72
I-1
sg22
g15
((ltRp76
sg70
S'/store/group/dpg_trigger/comm_trigger/TriggerStudiesGroup/STEAM/xulyu//HLTPhysics_Run299420_v2p1V4_PS1p4e34_20170802_V2/'
p77
sg25
Nsg71
S'json_299420_LS11to50.txt'
p78
sg68
I00
sbsg29
g3
(g9
g5
NtRp79
(dp80
S'outputFiles'
p81
(lp82
S'hlt.root'
p83
asS'numCores'
p84
I4
sg12
I00
sg13
S''
sg14
g15
((lp85
S'psetName'
p86
aS'pluginName'
p87
ag81
ag84
aS'maxMemoryMB'
p88
atRp89
sg19
g29
sg20
(dp90
sg87
S'Analysis'
p91
sg22
g15
((ltRp92
sg86
S'hlt_Minotaur_v2p1V4_PS1p4e34.py'
p93
sg25
Nsg88
I3000
sbsbsS'voGroup'
p94
S''
sS'Server'
p95
S'cmsweb.cern.ch'
p96
sS'instance'
p97
S'prod'
p98
sS'RequestName'
p99
V170804_143554:lewang_crab_HLTPhysics3
p100
sS'voRole'
p101
S'NULL'
p102
sS'Port'
p103
S''
s.